; Function Attrs: mustprogress uwtable
define internal void @_ZN12_GLOBAL__N_14Impl13EventHandlers5errorEPKcz(ptr noundef nonnull align 8 dereferenceable(456) %0, ptr nocapture noundef readonly %1, ...) unnamed_addr #0 align 2 personality ptr @__gxx_personality_v0 {
  %3 = alloca ptr, align 8
  %4 = alloca [2048 x i8], align 16
  %5 = alloca [1 x %struct.__va_list_tag], align 16
  call void @llvm.va_start(ptr nonnull %5)
  %6 = call noundef i32 @pthread_mutex_lock(ptr noundef nonnull %0) #22
  %.not.i.i.i = icmp eq i32 %6, 0
  br i1 %.not.i.i.i, label %_ZNSt11unique_lockISt5mutexEC2ERS0_.exit, label %7

7:                                                ; preds = %2
  call void @_ZSt20__throw_system_errori(i32 noundef %6) #26
  unreachable

_ZNSt11unique_lockISt5mutexEC2ERS0_.exit:         ; preds = %2
  call void @llvm.lifetime.start.p0(i64 2048, ptr nonnull %4)
  %8 = call i32 @vsnprintf(ptr noundef nonnull %4, i64 noundef 2048, ptr noundef %1, ptr noundef nonnull %5) #22
  %9 = getelementptr inbounds i8, ptr %0, i64 56
  %10 = load ptr, ptr %9, align 8
  %.not.i.i.not.i = icmp eq ptr %10, null
  br i1 %.not.i.i.not.i, label %_ZNSt11unique_lockISt5mutexED2Ev.exit, label %_ZNKSt8functionIFvPKcEEclES1_.exit.i

_ZNKSt8functionIFvPKcEEclES1_.exit.i:             ; preds = %_ZNSt11unique_lockISt5mutexEC2ERS0_.exit
  %11 = getelementptr inbounds i8, ptr %0, i64 40
  call void @llvm.lifetime.start.p0(i64 8, ptr nonnull %3)
  store ptr %4, ptr %3, align 8
  %12 = getelementptr inbounds i8, ptr %0, i64 64
  %13 = load ptr, ptr %12, align 8
  invoke void %13(ptr noundef nonnull align 8 dereferenceable(16) %11, ptr noundef nonnull align 8 dereferenceable(8) %3)
          to label %.noexc unwind label %_ZNSt11unique_lockISt5mutexED2Ev.exit5

.noexc:                                           ; preds = %_ZNKSt8functionIFvPKcEEclES1_.exit.i
  call void @llvm.lifetime.end.p0(i64 8, ptr nonnull %3)
  br label %_ZNSt11unique_lockISt5mutexED2Ev.exit

_ZNSt11unique_lockISt5mutexED2Ev.exit:            ; preds = %_ZNSt11unique_lockISt5mutexEC2ERS0_.exit, %.noexc
  call void @llvm.lifetime.end.p0(i64 2048, ptr nonnull %4)
  call void @llvm.va_end(ptr nonnull %5)
  %14 = call noundef i32 @pthread_mutex_unlock(ptr noundef nonnull %0) #22
  ret void

_ZNSt11unique_lockISt5mutexED2Ev.exit5:           ; preds = %_ZNKSt8functionIFvPKcEEclES1_.exit.i
  %15 = landingpad { ptr, i32 }
          cleanup
  %16 = call noundef i32 @pthread_mutex_unlock(ptr noundef nonnull %0) #22
  resume { ptr, i32 } %15
}